target datalayout = "e-m:e-p270:32:32-p271:32:32-p272:64:64-i64:64-i128:128-f80:128-n8:16:32:64-S128"
target triple = "x86_64-unknown-linux-gnu"

%union.pthread_mutex_t = type { %struct.__pthread_mutex_s }
%struct.__pthread_mutex_s = type { i32, i32, i32, i32, i32, i16, i16, %struct.__pthread_internal_list }
%struct.__pthread_internal_list = type { ptr, ptr }
%"class.std::__cxx11::basic_string" = type { %"struct.std::__cxx11::basic_string<char>::_Alloc_hider", i64, %union.anon.0 }
%"struct.std::__cxx11::basic_string<char>::_Alloc_hider" = type { ptr }
%union.anon.0 = type { i64, [8 x i8] }
%"class.OpenImageIO_v2_6_0::Filesystem::IOProxy" = type { ptr, %"class.std::__cxx11::basic_string", i64, i32, %"class.std::__cxx11::basic_string" }
%"class.OpenImageIO_v2_6_0::Filesystem::IOFile" = type { %"class.OpenImageIO_v2_6_0::Filesystem::IOProxy", ptr, i64, i8, %"class.std::mutex" }
%"class.std::mutex" = type { %"class.std::__mutex_base" }
%"class.std::__mutex_base" = type { %union.pthread_mutex_t }

; Function Attrs: mustprogress uwtable
define noundef i64 @_ZN18OpenImageIO_v2_6_010Filesystem6IOFile6pwriteEPKvml(ptr noundef nonnull align 8 dereferenceable(152) %this, ptr noundef %buf, i64 noundef %size, i64 noundef %offset) unnamed_addr #6 align 2 {
entry:
  %retval = alloca i64, align 8
  %this.addr = alloca ptr, align 8
  %buf.addr = alloca ptr, align 8
  %size.addr = alloca i64, align 8
  %offset.addr = alloca i64, align 8
  %fd = alloca i32, align 4
  %r = alloca i64, align 8
  store ptr %this, ptr %this.addr, align 8
  store ptr %buf, ptr %buf.addr, align 8
  store i64 %size, ptr %size.addr, align 8
  store i64 %offset, ptr %offset.addr, align 8
  %this1 = load ptr, ptr %this.addr, align 8
  %m_file = getelementptr inbounds %"class.OpenImageIO_v2_6_0::Filesystem::IOFile", ptr %this1, i32 0, i32 1
  %0 = load ptr, ptr %m_file, align 8
  %tobool = icmp ne ptr %0, null
  br i1 %tobool, label %lor.lhs.false, label %if.then

lor.lhs.false:                                    ; preds = %entry
  %1 = load i64, ptr %size.addr, align 8
  %tobool2 = icmp ne i64 %1, 0
  br i1 %tobool2, label %lor.lhs.false3, label %if.then

lor.lhs.false3:                                   ; preds = %lor.lhs.false
  %2 = load i64, ptr %offset.addr, align 8
  %cmp = icmp slt i64 %2, 0
  br i1 %cmp, label %if.then, label %lor.lhs.false4

lor.lhs.false4:                                   ; preds = %lor.lhs.false3
  %m_mode = getelementptr inbounds %"class.OpenImageIO_v2_6_0::Filesystem::IOProxy", ptr %this1, i32 0, i32 3
  %3 = load i32, ptr %m_mode, align 8
  %cmp5 = icmp ne i32 %3, 119
  br i1 %cmp5, label %if.then, label %if.end

if.then:                                          ; preds = %lor.lhs.false4, %lor.lhs.false3, %lor.lhs.false, %entry
  store i64 0, ptr %retval, align 8
  br label %return

if.end:                                           ; preds = %lor.lhs.false4
  %m_file6 = getelementptr inbounds %"class.OpenImageIO_v2_6_0::Filesystem::IOFile", ptr %this1, i32 0, i32 1
  %4 = load ptr, ptr %m_file6, align 8
  %call = call i32 @fileno(ptr noundef %4) #3
  store i32 %call, ptr %fd, align 4
  %5 = load i32, ptr %fd, align 4
  %6 = load ptr, ptr %buf.addr, align 8
  %7 = load i64, ptr %size.addr, align 8
  %8 = load i64, ptr %offset.addr, align 8
  %call7 = call i64 @pwrite(i32 noundef %5, ptr noundef %6, i64 noundef %7, i64 noundef %8)
  store i64 %call7, ptr %r, align 8
  %9 = load i64, ptr %r, align 8
  %cmp8 = icmp slt i64 %9, 0
  br i1 %cmp8, label %cond.true, label %cond.false

cond.true:                                        ; preds = %if.end
  br label %cond.end

cond.false:                                       ; preds = %if.end
  %10 = load i64, ptr %r, align 8
  br label %cond.end

cond.end:                                         ; preds = %cond.false, %cond.true
  %cond = phi i64 [ 0, %cond.true ], [ %10, %cond.false ]
  store i64 %cond, ptr %retval, align 8
  br label %return

return:                                           ; preds = %cond.end, %if.then
  %11 = load i64, ptr %retval, align 8
  ret i64 %11
}